; Function Attrs: mustprogress uwtable
define dso_local noundef i32 @_ZNK7testing9TestSuite18skipped_test_countEv(ptr noundef nonnull readonly align 8 captures(none) dereferenceable(264) %0) local_unnamed_addr #3 align 2 {
  %2 = getelementptr inbounds nuw i8, ptr %0, i64 48
  %3 = load ptr, ptr %2, align 8, !tbaa !716
  %4 = getelementptr inbounds nuw i8, ptr %0, i64 56
  %5 = load ptr, ptr %4, align 8, !tbaa !716
  %.not7.i = icmp eq ptr %3, %5
  br i1 %.not7.i, label %_ZN7testing8internal7CountIfISt6vectorIPNS_8TestInfoESaIS4_EEPFbPKS3_EEEiRKT_T0_.exit, label %.lr.ph.i

.lr.ph.i:                                         ; preds = %1, %_ZN7testing9TestSuite11TestSkippedEPKNS_8TestInfoE.exit
  %.09.i = phi i32 [ %spec.select.i, %_ZN7testing9TestSuite11TestSkippedEPKNS_8TestInfoE.exit ], [ 0, %1 ]
  %.sroa.04.08.i = phi ptr [ %32, %_ZN7testing9TestSuite11TestSkippedEPKNS_8TestInfoE.exit ], [ %3, %1 ]
  %6 = load ptr, ptr %.sroa.04.08.i, align 8, !tbaa !717
  %7 = getelementptr inbounds nuw i8, ptr %6, i64 128
  %8 = load i8, ptr %7, align 8, !tbaa !718, !range !17, !noundef !18
  %9 = trunc nuw i8 %8 to i1
  br i1 %9, label %10, label %_ZN7testing9TestSuite11TestSkippedEPKNS_8TestInfoE.exit

10:                                               ; preds = %.lr.ph.i
  %11 = getelementptr inbounds nuw i8, ptr %6, i64 200
  %12 = getelementptr inbounds nuw i8, ptr %6, i64 208
  %13 = load ptr, ptr %12, align 8, !tbaa !549
  %14 = load ptr, ptr %11, align 8, !tbaa !551
  %15 = ptrtoint ptr %13 to i64
  %16 = ptrtoint ptr %14 to i64
  %17 = sub i64 %15, %16
  %18 = sdiv exact i64 %17, 112
  %19 = trunc i64 %18 to i32
  %.not10.i.i.i = icmp sgt i32 %19, 0
  br i1 %.not10.i.i.i, label %.lr.ph.preheader.i.i.i, label %.loopexit.i.i

.lr.ph.preheader.i.i.i:                           ; preds = %10
  %wide.trip.count.i.i.i = and i64 %18, 2147483647
  br label %.lr.ph.i.i.i

20:                                               ; preds = %_ZNK7testing10TestResult17GetTestPartResultEi.exit.i.i.i
  %indvars.iv.next.i.i.i = add nuw nsw i64 %indvars.iv.i.i.i, 1
  %exitcond16.not.i.i.i = icmp eq i64 %indvars.iv.next.i.i.i, %wide.trip.count.i.i.i
  br i1 %exitcond16.not.i.i.i, label %.loopexit.i.i, label %.lr.ph.i.i.i, !llvm.loop !721

.lr.ph.i.i.i:                                     ; preds = %20, %.lr.ph.preheader.i.i.i
  %indvars.iv.i.i.i = phi i64 [ 0, %.lr.ph.preheader.i.i.i ], [ %indvars.iv.next.i.i.i, %20 ]
  %exitcond.not.i.i.i = icmp eq i64 %indvars.iv.i.i.i, %18
  br i1 %exitcond.not.i.i.i, label %21, label %_ZNK7testing10TestResult17GetTestPartResultEi.exit.i.i.i

21:                                               ; preds = %.lr.ph.i.i.i
  tail call void (ptr, ...) @_ZSt24__throw_out_of_range_fmtPKcz(ptr noundef nonnull @.str.549, i64 noundef %18, i64 noundef %18) #59
  unreachable

_ZNK7testing10TestResult17GetTestPartResultEi.exit.i.i.i: ; preds = %.lr.ph.i.i.i
  %22 = getelementptr inbounds nuw %"class.testing::TestPartResult", ptr %14, i64 %indvars.iv.i.i.i
  %23 = load i32, ptr %22, align 8, !tbaa !548
  %24 = add i32 %23, -1
  %spec.select.i.i.i.i = icmp ult i32 %24, 2
  br i1 %spec.select.i.i.i.i, label %_ZN7testing9TestSuite11TestSkippedEPKNS_8TestInfoE.exit, label %20

.loopexit.i.i:                                    ; preds = %20, %10
  %.not7.i.i.i = icmp eq ptr %14, %13
  br i1 %.not7.i.i.i, label %_ZN7testing9TestSuite11TestSkippedEPKNS_8TestInfoE.exit, label %.lr.ph.i1.i.i

.lr.ph.i1.i.i:                                    ; preds = %.loopexit.i.i, %.lr.ph.i1.i.i
  %.09.i.i.i = phi i32 [ %spec.select.i.i.i, %.lr.ph.i1.i.i ], [ 0, %.loopexit.i.i ]
  %.sroa.04.08.i.i.i = phi ptr [ %28, %.lr.ph.i1.i.i ], [ %14, %.loopexit.i.i ]
  %25 = load i32, ptr %.sroa.04.08.i.i.i, align 8, !tbaa !548
  %26 = icmp eq i32 %25, 3
  %27 = zext i1 %26 to i32
  %spec.select.i.i.i = add nuw nsw i32 %.09.i.i.i, %27
  %28 = getelementptr inbounds nuw i8, ptr %.sroa.04.08.i.i.i, i64 112
  %.not.i.i.i = icmp eq ptr %28, %13
  br i1 %.not.i.i.i, label %_ZN7testing8internal7CountIfISt6vectorINS_14TestPartResultESaIS3_EEPFbRKS3_EEEiRKT_T0_.exit.loopexit.i.i, label %.lr.ph.i1.i.i, !llvm.loop !722

_ZN7testing8internal7CountIfISt6vectorINS_14TestPartResultESaIS3_EEPFbRKS3_EEEiRKT_T0_.exit.loopexit.i.i: ; preds = %.lr.ph.i1.i.i
  %29 = icmp ne i32 %spec.select.i.i.i, 0
  %30 = zext i1 %29 to i32
  br label %_ZN7testing9TestSuite11TestSkippedEPKNS_8TestInfoE.exit

_ZN7testing9TestSuite11TestSkippedEPKNS_8TestInfoE.exit: ; preds = %_ZNK7testing10TestResult17GetTestPartResultEi.exit.i.i.i, %.lr.ph.i, %.loopexit.i.i, %_ZN7testing8internal7CountIfISt6vectorINS_14TestPartResultESaIS3_EEPFbRKS3_EEEiRKT_T0_.exit.loopexit.i.i
  %31 = phi i32 [ 0, %.lr.ph.i ], [ 0, %.loopexit.i.i ], [ %30, %_ZN7testing8internal7CountIfISt6vectorINS_14TestPartResultESaIS3_EEPFbRKS3_EEEiRKT_T0_.exit.loopexit.i.i ], [ 0, %_ZNK7testing10TestResult17GetTestPartResultEi.exit.i.i.i ]
  %spec.select.i = add nuw nsw i32 %31, %.09.i
  %32 = getelementptr inbounds nuw i8, ptr %.sroa.04.08.i, i64 8
  %.not.i = icmp eq ptr %32, %5
  br i1 %.not.i, label %_ZN7testing8internal7CountIfISt6vectorIPNS_8TestInfoESaIS4_EEPFbPKS3_EEEiRKT_T0_.exit, label %.lr.ph.i, !llvm.loop !723

_ZN7testing8internal7CountIfISt6vectorIPNS_8TestInfoESaIS4_EEPFbPKS3_EEEiRKT_T0_.exit: ; preds = %_ZN7testing9TestSuite11TestSkippedEPKNS_8TestInfoE.exit, %1
  %.0.lcssa.i = phi i32 [ 0, %1 ], [ %spec.select.i, %_ZN7testing9TestSuite11TestSkippedEPKNS_8TestInfoE.exit ]
  ret i32 %.0.lcssa.i
}